target datalayout = "e-m:e-p270:32:32-p271:32:32-p272:64:64-i64:64-i128:128-f80:128-n8:16:32:64-S128"
target triple = "x86_64-pc-linux-gnu"

%struct._psqlSettings = type { ptr, i32, ptr, i8, ptr, ptr, %struct.printQueryOpt, ptr, ptr, ptr, i8, i8, i32, i32, ptr, ptr, i8, [4 x ptr], i8, i32, ptr, i8, i32, ptr, ptr, i64, i64, i8, ptr, ptr, ptr, i8, i8, i8, i8, i8, i8, i8, i32, i32, i32, i32, i32, i32, i32, i32, ptr, ptr, ptr, i32, i8, i32 }
%struct.printQueryOpt = type { %struct.printTableOpt, ptr, ptr, ptr, i8, ptr, i32 }
%struct.printTableOpt = type { i32, i16, i32, i32, i16, i16, i32, i8, i8, i8, i8, i64, ptr, %struct.separator, %struct.separator, [2 x i8], i8, ptr, i32, i32, i32, i32, i32, i32 }
%struct.separator = type { ptr, i8 }

@pset = external global %struct._psqlSettings, align 8
@.str.260 = private unnamed_addr constant [3 x i8] c"on\00", align 1
@.str.261 = private unnamed_addr constant [4 x i8] c"off\00", align 1
@.str.263 = private unnamed_addr constant [8 x i8] c"unknown\00", align 1
@.str.306 = private unnamed_addr constant [9 x i8] c"protocol\00", align 1
@.str.307 = private unnamed_addr constant [7 x i8] c"cipher\00", align 1
@.str.308 = private unnamed_addr constant [12 x i8] c"compression\00", align 1
@.str.309 = private unnamed_addr constant [5 x i8] c"alpn\00", align 1
@.str.310 = private unnamed_addr constant [70 x i8] c"SSL connection (protocol: %s, cipher: %s, compression: %s, ALPN: %s)\0A\00", align 1
@.str.311 = private unnamed_addr constant [5 x i8] c"none\00", align 1

; Function Attrs: nounwind uwtable
define internal void @printSSLInfo() #0 {
  %1 = alloca ptr, align 8
  %2 = alloca ptr, align 8
  %3 = alloca ptr, align 8
  %4 = alloca ptr, align 8
  %5 = alloca i32, align 4
  call void @llvm.lifetime.start.p0(i64 8, ptr %1) #10
  call void @llvm.lifetime.start.p0(i64 8, ptr %2) #10
  call void @llvm.lifetime.start.p0(i64 8, ptr %3) #10
  call void @llvm.lifetime.start.p0(i64 8, ptr %4) #10
  %6 = load ptr, ptr @pset, align 8
  %7 = call i32 @PQsslInUse(ptr noundef %6)
  %8 = icmp ne i32 %7, 0
  br i1 %8, label %10, label %9

9:                                                ; preds = %0
  store i32 1, ptr %5, align 4
  br label %56

10:                                               ; preds = %0
  %11 = load ptr, ptr @pset, align 8
  %12 = call ptr @PQsslAttribute(ptr noundef %11, ptr noundef @.str.306)
  store ptr %12, ptr %1, align 8
  %13 = load ptr, ptr @pset, align 8
  %14 = call ptr @PQsslAttribute(ptr noundef %13, ptr noundef @.str.307)
  store ptr %14, ptr %2, align 8
  %15 = load ptr, ptr @pset, align 8
  %16 = call ptr @PQsslAttribute(ptr noundef %15, ptr noundef @.str.308)
  store ptr %16, ptr %3, align 8
  %17 = load ptr, ptr @pset, align 8
  %18 = call ptr @PQsslAttribute(ptr noundef %17, ptr noundef @.str.309)
  store ptr %18, ptr %4, align 8
  %19 = load ptr, ptr %1, align 8
  %20 = icmp ne ptr %19, null
  br i1 %20, label %21, label %23

21:                                               ; preds = %10
  %22 = load ptr, ptr %1, align 8
  br label %24

23:                                               ; preds = %10
  br label %24

24:                                               ; preds = %23, %21
  %25 = phi ptr [ %22, %21 ], [ @.str.263, %23 ]
  %26 = load ptr, ptr %2, align 8
  %27 = icmp ne ptr %26, null
  br i1 %27, label %28, label %30

28:                                               ; preds = %24
  %29 = load ptr, ptr %2, align 8
  br label %31

30:                                               ; preds = %24
  br label %31

31:                                               ; preds = %30, %28
  %32 = phi ptr [ %29, %28 ], [ @.str.263, %30 ]
  %33 = load ptr, ptr %3, align 8
  %34 = icmp ne ptr %33, null
  br i1 %34, label %35, label %39

35:                                               ; preds = %31
  %36 = load ptr, ptr %3, align 8
  %37 = call i32 @strcmp(ptr noundef %36, ptr noundef @.str.261) #11
  %38 = icmp ne i32 %37, 0
  br label %39

39:                                               ; preds = %35, %31
  %40 = phi i1 [ false, %31 ], [ %38, %35 ]
  %41 = select i1 %40, ptr @.str.260, ptr @.str.261
  %42 = load ptr, ptr %4, align 8
  %43 = icmp ne ptr %42, null
  br i1 %43, label %44, label %52

44:                                               ; preds = %39
  %45 = load ptr, ptr %4, align 8
  %46 = getelementptr inbounds i8, ptr %45, i64 0
  %47 = load i8, ptr %46, align 1
  %48 = sext i8 %47 to i32
  %49 = icmp ne i32 %48, 0
  br i1 %49, label %50, label %52

50:                                               ; preds = %44
  %51 = load ptr, ptr %4, align 8
  br label %53

52:                                               ; preds = %44, %39
  br label %53

53:                                               ; preds = %52, %50
  %54 = phi ptr [ %51, %50 ], [ @.str.311, %52 ]
  %55 = call i32 (ptr, ...) @pg_printf(ptr noundef @.str.310, ptr noundef %25, ptr noundef %32, ptr noundef %41, ptr noundef %54)
  store i32 0, ptr %5, align 4
  br label %56

56:                                               ; preds = %53, %9
  call void @llvm.lifetime.end.p0(i64 8, ptr %4) #10
  call void @llvm.lifetime.end.p0(i64 8, ptr %3) #10
  call void @llvm.lifetime.end.p0(i64 8, ptr %2) #10
  call void @llvm.lifetime.end.p0(i64 8, ptr %1) #10
  %57 = load i32, ptr %5, align 4
  switch i32 %57, label %59 [
    i32 0, label %58
    i32 1, label %58
  ]

58:                                               ; preds = %56, %56
  ret void

59:                                               ; preds = %56
  unreachable
}