; Function Attrs: nounwind uwtable
define internal fastcc void @printSSLInfo() unnamed_addr #0 {
  %1 = load ptr, ptr @pset, align 8
  %2 = tail call i32 @PQsslInUse(ptr noundef %1) #16
  %.not = icmp eq i32 %2, 0
  br i1 %.not, label %24, label %3

3:                                                ; preds = %0
  %4 = load ptr, ptr @pset, align 8
  %5 = tail call ptr @PQsslAttribute(ptr noundef %4, ptr noundef nonnull @.str.306) #16
  %6 = load ptr, ptr @pset, align 8
  %7 = tail call ptr @PQsslAttribute(ptr noundef %6, ptr noundef nonnull @.str.307) #16
  %8 = load ptr, ptr @pset, align 8
  %9 = tail call ptr @PQsslAttribute(ptr noundef %8, ptr noundef nonnull @.str.308) #16
  %10 = load ptr, ptr @pset, align 8
  %11 = tail call ptr @PQsslAttribute(ptr noundef %10, ptr noundef nonnull @.str.309) #16
  %.not10 = icmp eq ptr %5, null
  %12 = select i1 %.not10, ptr @.str.263, ptr %5
  %.not11 = icmp eq ptr %7, null
  %13 = select i1 %.not11, ptr @.str.263, ptr %7
  %.not12 = icmp eq ptr %9, null
  br i1 %.not12, label %17, label %14

14:                                               ; preds = %3
  %15 = tail call i32 @strcmp(ptr noundef nonnull dereferenceable(1) %9, ptr noundef nonnull dereferenceable(4) @.str.261) #17
  %.not13 = icmp eq i32 %15, 0
  %16 = select i1 %.not13, ptr @.str.261, ptr @.str.260
  br label %17

17:                                               ; preds = %14, %3
  %18 = phi ptr [ @.str.261, %3 ], [ %16, %14 ]
  %.not14 = icmp eq ptr %11, null
  br i1 %.not14, label %21, label %19

19:                                               ; preds = %17
  %20 = load i8, ptr %11, align 1
  %.not15 = icmp eq i8 %20, 0
  %spec.select = select i1 %.not15, ptr @.str.311, ptr %11
  br label %21

21:                                               ; preds = %19, %17
  %22 = phi ptr [ @.str.311, %17 ], [ %spec.select, %19 ]
  %23 = tail call i32 (ptr, ...) @pg_printf(ptr noundef nonnull @.str.310, ptr noundef nonnull %12, ptr noundef nonnull %13, ptr noundef nonnull %18, ptr noundef %22) #16
  br label %24

24:                                               ; preds = %0, %21
  ret void
}